; Function Attrs: mustprogress nofree norecurse nosync nounwind willreturn memory(argmem: read) uwtable
define noundef ptr @_ZN3net14QuicDataWriter10BeginWriteEm(ptr noundef nonnull readonly align 8 captures(none) dereferenceable(24) %0, i64 noundef %1) local_unnamed_addr #2 align 2 personality ptr @__gxx_personality_v0 {
  %3 = getelementptr inbounds nuw i8, ptr %0, i64 16
  %4 = load i64, ptr %3, align 8, !tbaa !11
  %5 = getelementptr inbounds nuw i8, ptr %0, i64 8
  %6 = load i64, ptr %5, align 8, !tbaa !10
  %7 = icmp ugt i64 %4, %6
  %8 = sub nuw i64 %6, %4
  %9 = icmp ult i64 %8, %1
  %or.cond = select i1 %7, i1 true, i1 %9
  %10 = load ptr, ptr %0, align 8
  %11 = getelementptr inbounds nuw i8, ptr %10, i64 %4
  %.0 = select i1 %or.cond, ptr null, ptr %11
  ret ptr %.0
}